; Function Attrs: mustprogress nofree norecurse nosync nounwind willreturn memory(read, inaccessiblemem: none) uwtable
define hidden range(i32 0, 2) i32 @RSA_is_opaque(ptr noundef readonly captures(none) %rsa) local_unnamed_addr #4 {
entry:
  %0 = load ptr, ptr %rsa, align 8
  %tobool.not = icmp eq ptr %0, null
  br i1 %tobool.not, label %land.end, label %land.rhs

land.rhs:                                         ; preds = %entry
  %flags = getelementptr inbounds nuw i8, ptr %0, i64 112
  %1 = load i32, ptr %flags, align 8
  %and = and i32 %1, 1
  br label %land.end

land.end:                                         ; preds = %land.rhs, %entry
  %land.ext = phi i32 [ 0, %entry ], [ %and, %land.rhs ]
  ret i32 %land.ext
}